; Function Attrs: inlinehint mustprogress nounwind uwtable
define internal void @"_ZZN8pybind1112cpp_function10initializeIZ30test_submodule_builtin_castersRNS_7module_EE3$_4NSt7__cxx1112basic_stringIwSt11char_traitsIwESaIwEEEJEJNS_4nameENS_5scopeENS_7siblingEEEEvOT_PFT0_DpT1_EDpRKT2_ENUlPNS_6detail15function_recordEE0_8__invokeESR_"(ptr noundef readonly captures(none) %0) #0 align 2 personality ptr @__gxx_personality_v0 {
  %2 = getelementptr i8, ptr %0, i64 56
  %.val = load ptr, ptr %2, align 8, !tbaa !160
  %3 = icmp eq ptr %.val, null
  br i1 %3, label %"_ZZN8pybind1112cpp_function10initializeIZ30test_submodule_builtin_castersRNS_7module_EE3$_4NSt7__cxx1112basic_stringIwSt11char_traitsIwESaIwEEEJEJNS_4nameENS_5scopeENS_7siblingEEEEvOT_PFT0_DpT1_EDpRKT2_ENKUlPNS_6detail15function_recordEE0_clESR_.exit", label %4

4:                                                ; preds = %1
  %5 = load ptr, ptr %.val, align 8, !tbaa !114
  %6 = getelementptr inbounds nuw i8, ptr %.val, i64 16
  %7 = icmp eq ptr %5, %6
  br i1 %7, label %_ZNKSt7__cxx1112basic_stringIwSt11char_traitsIwESaIwEE11_M_is_localEv.exit.thread.i.i.i.i.i, label %_ZNKSt7__cxx1112basic_stringIwSt11char_traitsIwESaIwEE11_M_is_localEv.exit.i.i.i.i.i

_ZNKSt7__cxx1112basic_stringIwSt11char_traitsIwESaIwEE11_M_is_localEv.exit.thread.i.i.i.i.i: ; preds = %4
  %8 = getelementptr inbounds nuw i8, ptr %.val, i64 8
  %9 = load i64, ptr %8, align 8, !tbaa !112
  %10 = icmp ult i64 %9, 4
  tail call void @llvm.assume(i1 %10)
  br label %"_ZZN8pybind1112cpp_function10initializeIZ30test_submodule_builtin_castersRNS_7module_EE3$_4NSt7__cxx1112basic_stringIwSt11char_traitsIwESaIwEEEJEJNS_4nameENS_5scopeENS_7siblingEEEEvOT_PFT0_DpT1_EDpRKT2_EN7captureD2Ev.exit.i"

_ZNKSt7__cxx1112basic_stringIwSt11char_traitsIwESaIwEE11_M_is_localEv.exit.i.i.i.i.i: ; preds = %4
  %11 = load i64, ptr %6, align 8, !tbaa !79
  %12 = shl i64 %11, 2
  %13 = add i64 %12, 4
  tail call void @_ZdlPvm(ptr noundef %5, i64 noundef %13) #35
  br label %"_ZZN8pybind1112cpp_function10initializeIZ30test_submodule_builtin_castersRNS_7module_EE3$_4NSt7__cxx1112basic_stringIwSt11char_traitsIwESaIwEEEJEJNS_4nameENS_5scopeENS_7siblingEEEEvOT_PFT0_DpT1_EDpRKT2_EN7captureD2Ev.exit.i"

"_ZZN8pybind1112cpp_function10initializeIZ30test_submodule_builtin_castersRNS_7module_EE3$_4NSt7__cxx1112basic_stringIwSt11char_traitsIwESaIwEEEJEJNS_4nameENS_5scopeENS_7siblingEEEEvOT_PFT0_DpT1_EDpRKT2_EN7captureD2Ev.exit.i": ; preds = %_ZNKSt7__cxx1112basic_stringIwSt11char_traitsIwESaIwEE11_M_is_localEv.exit.i.i.i.i.i, %_ZNKSt7__cxx1112basic_stringIwSt11char_traitsIwESaIwEE11_M_is_localEv.exit.thread.i.i.i.i.i
  tail call void @_ZdlPvm(ptr noundef nonnull %.val, i64 noundef 32) #35
  br label %"_ZZN8pybind1112cpp_function10initializeIZ30test_submodule_builtin_castersRNS_7module_EE3$_4NSt7__cxx1112basic_stringIwSt11char_traitsIwESaIwEEEJEJNS_4nameENS_5scopeENS_7siblingEEEEvOT_PFT0_DpT1_EDpRKT2_ENKUlPNS_6detail15function_recordEE0_clESR_.exit"

"_ZZN8pybind1112cpp_function10initializeIZ30test_submodule_builtin_castersRNS_7module_EE3$_4NSt7__cxx1112basic_stringIwSt11char_traitsIwESaIwEEEJEJNS_4nameENS_5scopeENS_7siblingEEEEvOT_PFT0_DpT1_EDpRKT2_ENKUlPNS_6detail15function_recordEE0_clESR_.exit": ; preds = %1, %"_ZZN8pybind1112cpp_function10initializeIZ30test_submodule_builtin_castersRNS_7module_EE3$_4NSt7__cxx1112basic_stringIwSt11char_traitsIwESaIwEEEJEJNS_4nameENS_5scopeENS_7siblingEEEEvOT_PFT0_DpT1_EDpRKT2_EN7captureD2Ev.exit.i"
  ret void
}